; Function Attrs: mustprogress nofree norecurse nosync nounwind willreturn memory(write, argmem: readwrite, inaccessiblemem: none) uwtable
define noundef zeroext i1 @_ZN3net14QuicDataWriter11WriteUInt16Et(ptr noundef nonnull align 8 captures(none) dereferenceable(24) %0, i16 noundef zeroext %1) local_unnamed_addr #3 align 2 personality ptr @__gxx_personality_v0 {
  %3 = getelementptr inbounds nuw i8, ptr %0, i64 16
  %4 = load i64, ptr %3, align 8, !tbaa !11
  %5 = getelementptr inbounds nuw i8, ptr %0, i64 8
  %6 = load i64, ptr %5, align 8, !tbaa !10
  %7 = icmp ugt i64 %4, %6
  %8 = sub nuw i64 %6, %4
  %9 = icmp ult i64 %8, 2
  %or.cond.i.i = select i1 %7, i1 true, i1 %9
  %10 = load ptr, ptr %0, align 8
  %11 = getelementptr inbounds nuw i8, ptr %10, i64 %4
  %.0.i.i = select i1 %or.cond.i.i, ptr null, ptr %11
  %.not.i = icmp ne ptr %.0.i.i, null
  br i1 %.not.i, label %12, label %_ZN3net14QuicDataWriter10WriteBytesEPKvm.exit

12:                                               ; preds = %2
  store i16 %1, ptr %.0.i.i, align 1
  %13 = load i64, ptr %3, align 8, !tbaa !11
  %14 = add i64 %13, 2
  store i64 %14, ptr %3, align 8, !tbaa !11
  br label %_ZN3net14QuicDataWriter10WriteBytesEPKvm.exit

_ZN3net14QuicDataWriter10WriteBytesEPKvm.exit:    ; preds = %2, %12
  ret i1 %.not.i
}